target datalayout = "e-m:e-p270:32:32-p271:32:32-p272:64:64-i64:64-i128:128-f80:128-n8:16:32:64-S128"
target triple = "x86_64-pc-linux-gnu"

@ps_buffer = internal global ptr null, align 8
@ps_buffer_fixed_size = internal global i64 0, align 8
@ps_buffer_cur_len = internal global i64 0, align 8
@.str.3 = private unnamed_addr constant [1 x i8] zeroinitializer, align 1

; Function Attrs: nounwind uwtable
define dso_local ptr @get_ps_display(ptr noundef %0) #0 {
  %2 = alloca ptr, align 8
  %3 = alloca ptr, align 8
  store ptr %0, ptr %3, align 8
  %4 = load ptr, ptr @ps_buffer, align 8
  %5 = icmp ne ptr %4, null
  br i1 %5, label %8, label %6

6:                                                ; preds = %1
  %7 = load ptr, ptr %3, align 8
  store i32 0, ptr %7, align 4
  store ptr @.str.3, ptr %2, align 8
  br label %17

8:                                                ; preds = %1
  %9 = load i64, ptr @ps_buffer_cur_len, align 8
  %10 = load i64, ptr @ps_buffer_fixed_size, align 8
  %11 = sub i64 %9, %10
  %12 = trunc i64 %11 to i32
  %13 = load ptr, ptr %3, align 8
  store i32 %12, ptr %13, align 4
  %14 = load ptr, ptr @ps_buffer, align 8
  %15 = load i64, ptr @ps_buffer_fixed_size, align 8
  %16 = getelementptr inbounds nuw i8, ptr %14, i64 %15
  store ptr %16, ptr %2, align 8
  br label %17

17:                                               ; preds = %8, %6
  %18 = load ptr, ptr %2, align 8
  ret ptr %18
}