; Function Attrs: mustprogress nofree norecurse nosync nounwind willreturn memory(read, argmem: write, inaccessiblemem: none) uwtable
define dso_local ptr @get_ps_display(ptr noundef writeonly captures(none) initializes((0, 4)) %0) local_unnamed_addr #10 {
  %2 = load ptr, ptr @ps_buffer, align 8
  %.not = icmp eq ptr %2, null
  %3 = load i64, ptr @ps_buffer_cur_len, align 8
  %4 = load i64, ptr @ps_buffer_fixed_size, align 8
  %5 = sub i64 %3, %4
  %6 = trunc i64 %5 to i32
  %7 = getelementptr inbounds nuw i8, ptr %2, i64 %4
  %.sink = select i1 %.not, i32 0, i32 %6
  %.0 = select i1 %.not, ptr @.str.3, ptr %7
  store i32 %.sink, ptr %0, align 4
  ret ptr %.0
}